; Function Attrs: mustprogress uwtable
define void @_ZN8proxygen18HTTP2PriorityQueue18detachThreadLocalsEv(ptr noundef nonnull align 8 dereferenceable(312) %this) local_unnamed_addr #4 align 2 {
entry:
  %ref.tmp = alloca %"class.proxygen::WheelTimerInstance", align 8
  %root_.i = getelementptr inbounds i8, ptr %this, i64 40
  tail call void @_ZN8proxygen18HTTP2PriorityQueue4Node17dropPriorityNodesEv(ptr noundef nonnull align 8 dereferenceable(200) %root_.i)
  call void @_ZN8proxygen18WheelTimerInstanceC1Ev(ptr noundef nonnull align 8 dereferenceable(16) %ref.tmp)
  %timeout_ = getelementptr inbounds i8, ptr %this, i64 288
  %call = call noundef nonnull align 8 dereferenceable(16) ptr @_ZN8proxygen18WheelTimerInstanceaSEOKS0_(ptr noundef nonnull align 8 dereferenceable(16) %timeout_, ptr noundef nonnull align 8 dereferenceable(16) %ref.tmp)
  ret void
}